target datalayout = "e-m:e-p270:32:32-p271:32:32-p272:64:64-i64:64-i128:128-f80:128-n8:16:32:64-S128"
target triple = "x86_64-pc-linux-gnu"

%struct._lv_msgbox_t = type { %struct._lv_obj_t, ptr, ptr, ptr, ptr }
%struct._lv_obj_t = type { ptr, ptr, ptr, ptr, ptr, %struct.lv_area_t, i32, i16, i16 }
%struct.lv_area_t = type { i32, i32, i32, i32 }

@lv_msgbox_header_button_class = constant { ptr, ptr, ptr, ptr, ptr, ptr, i32, i32, i8, i8, i8, [5 x i8] } { ptr @lv_obj_class, ptr null, ptr null, ptr null, ptr null, ptr @.str.5, i32 43, i32 536871012, i8 4, i8 4, i8 0, [5 x i8] zeroinitializer }, align 8
@.str.7 = private unnamed_addr constant [1 x i8] zeroinitializer, align 1

; Function Attrs: nounwind uwtable
define ptr @lv_msgbox_add_header_button(ptr noundef %0, ptr noundef %1) #0 {
  %3 = alloca ptr, align 8
  %4 = alloca ptr, align 8
  %5 = alloca ptr, align 8
  %6 = alloca ptr, align 8
  %7 = alloca ptr, align 8
  %8 = alloca i32, align 4
  %9 = alloca ptr, align 8
  store ptr %0, ptr %4, align 8, !tbaa !3
  store ptr %1, ptr %5, align 8, !tbaa !3
  call void @llvm.lifetime.start.p0(i64 8, ptr %6) #4
  %10 = load ptr, ptr %4, align 8, !tbaa !3
  store ptr %10, ptr %6, align 8, !tbaa !3
  %11 = load ptr, ptr %6, align 8, !tbaa !3
  %12 = getelementptr inbounds nuw %struct._lv_msgbox_t, ptr %11, i32 0, i32 1
  %13 = load ptr, ptr %12, align 8, !tbaa !17
  %14 = icmp eq ptr %13, null
  br i1 %14, label %15, label %18

15:                                               ; preds = %2
  %16 = load ptr, ptr %4, align 8, !tbaa !3
  %17 = call ptr @lv_msgbox_add_title(ptr noundef %16, ptr noundef @.str.7)
  br label %18

18:                                               ; preds = %15, %2
  call void @llvm.lifetime.start.p0(i64 8, ptr %7) #4
  %19 = load ptr, ptr %6, align 8, !tbaa !3
  %20 = getelementptr inbounds nuw %struct._lv_msgbox_t, ptr %19, i32 0, i32 1
  %21 = load ptr, ptr %20, align 8, !tbaa !17
  %22 = call ptr @lv_obj_class_create_obj(ptr noundef @lv_msgbox_header_button_class, ptr noundef %21)
  store ptr %22, ptr %7, align 8, !tbaa !3
  br label %23

23:                                               ; preds = %18
  %24 = load ptr, ptr %4, align 8, !tbaa !3
  %25 = icmp ne ptr %24, null
  br i1 %25, label %32, label %26

26:                                               ; preds = %23
  br label %27

27:                                               ; preds = %26
  br label %28

28:                                               ; preds = %27
  br label %29

29:                                               ; preds = %28
  br label %30

30:                                               ; preds = %31, %29
  br label %31

31:                                               ; preds = %30
  br label %30

32:                                               ; preds = %23
  br label %33

33:                                               ; preds = %32
  br label %34

34:                                               ; preds = %33
  %35 = load ptr, ptr %7, align 8, !tbaa !3
  %36 = icmp eq ptr %35, null
  br i1 %36, label %37, label %38

37:                                               ; preds = %34
  store ptr null, ptr %3, align 8
  store i32 1, ptr %8, align 4
  br label %51

38:                                               ; preds = %34
  %39 = load ptr, ptr %7, align 8, !tbaa !3
  call void @lv_obj_class_init_obj(ptr noundef %39)
  %40 = load ptr, ptr %7, align 8, !tbaa !3
  call void @lv_obj_remove_flag(ptr noundef %40, i32 noundef 16)
  %41 = load ptr, ptr %5, align 8, !tbaa !3
  %42 = icmp ne ptr %41, null
  br i1 %42, label %43, label %49

43:                                               ; preds = %38
  call void @llvm.lifetime.start.p0(i64 8, ptr %9) #4
  %44 = load ptr, ptr %7, align 8, !tbaa !3
  %45 = call ptr @lv_image_create(ptr noundef %44)
  store ptr %45, ptr %9, align 8, !tbaa !3
  %46 = load ptr, ptr %9, align 8, !tbaa !3
  %47 = load ptr, ptr %5, align 8, !tbaa !3
  call void @lv_image_set_src(ptr noundef %46, ptr noundef %47)
  %48 = load ptr, ptr %9, align 8, !tbaa !3
  call void @lv_obj_align(ptr noundef %48, i32 noundef 9, i32 noundef 0, i32 noundef 0)
  call void @llvm.lifetime.end.p0(i64 8, ptr %9) #4
  br label %49

49:                                               ; preds = %43, %38
  %50 = load ptr, ptr %7, align 8, !tbaa !3
  store ptr %50, ptr %3, align 8
  store i32 1, ptr %8, align 4
  br label %51

51:                                               ; preds = %49, %37
  call void @llvm.lifetime.end.p0(i64 8, ptr %7) #4
  call void @llvm.lifetime.end.p0(i64 8, ptr %6) #4
  %52 = load ptr, ptr %3, align 8
  ret ptr %52
}