; Function Attrs: nounwind uwtable
define ptr @lv_msgbox_add_header_button(ptr noundef %0, ptr noundef %1) local_unnamed_addr #0 {
  %3 = getelementptr inbounds nuw i8, ptr %0, i64 64
  %4 = load ptr, ptr %3, align 8, !tbaa !12
  %5 = icmp eq ptr %4, null
  br i1 %5, label %6, label %8

6:                                                ; preds = %2
  %7 = tail call ptr @lv_msgbox_add_title(ptr noundef nonnull %0, ptr noundef nonnull @.str.7)
  %.pre = load ptr, ptr %3, align 8, !tbaa !12
  br label %8

8:                                                ; preds = %2, %6
  %9 = phi ptr [ %4, %2 ], [ %.pre, %6 ]
  %10 = tail call ptr @lv_obj_class_create_obj(ptr noundef nonnull @lv_msgbox_header_button_class, ptr noundef %9) #3
  %11 = icmp eq ptr %10, null
  br i1 %11, label %15, label %12

12:                                               ; preds = %8
  tail call void @lv_obj_class_init_obj(ptr noundef nonnull %10) #3
  tail call void @lv_obj_remove_flag(ptr noundef nonnull %10, i32 noundef 16) #3
  %.not17 = icmp eq ptr %1, null
  br i1 %.not17, label %15, label %13

13:                                               ; preds = %12
  %14 = tail call ptr @lv_image_create(ptr noundef nonnull %10) #3
  tail call void @lv_image_set_src(ptr noundef %14, ptr noundef nonnull %1) #3
  tail call void @lv_obj_align(ptr noundef %14, i32 noundef 9, i32 noundef 0, i32 noundef 0) #3
  br label %15

15:                                               ; preds = %12, %13, %8
  ret ptr %10
}